S''
p0
.F-1.0
.S''
p0
.I00
.I00
.I00
.I00
.S'.'
p0
.I-1
.S''
p0
.S'prueba/cg.S.4'
p0
.S''
p0
.S'mpi'
p0
.S''
p0
.S''
p0
.I00
.I0
.I4
.S''
p0
.S''
p0
.S'/home/jmartine/BSC/intel-exascale/software-intel/pinplay-drdebug-2.2-pldi2015-pin-2.14-71313-gcc.4.4.7-linux/'
p0
.S''
p0
.S''
p0
.I00
.S''
p0
.S''
p0
.S''
p0
.S''
p0
.N.I00
.