S''
p0
.F-1.0
.S''
p0
.I00
.I00
.I00
.I00
.S'.'
p0
.I-1
.S''
p0
.S'prueba/cg.S.4'
p0
.S''
p0
.S'mpi'
p0
.S'-np'
p0
.S''
p0
.I00
.I0
.I0
.S''
p0
.S''
p0
.S''
p0
.S''
p0
.S''
p0
.I00
.S''
p0
.S''
p0
.S''
p0
.S''
p0
.N.I00
.